target datalayout = "e-m:e-p270:32:32-p271:32:32-p272:64:64-i64:64-i128:128-f80:128-n8:16:32:64-S128"
target triple = "x86_64-pc-linux-gnu"

%struct.IDAMemRec = type { double, ptr, ptr, i32, double, double, ptr, i32, ptr, ptr, i32, ptr, ptr, i32, i32, double, double, ptr, i32, i32, i32, ptr, ptr, i32, ptr, ptr, ptr, i32, double, i32, i32, double, ptr, ptr, i32, ptr, ptr, i32, i32, i32, double, ptr, ptr, [6 x ptr], [6 x double], [6 x double], [6 x double], [6 x double], [6 x double], ptr, ptr, ptr, ptr, ptr, ptr, ptr, ptr, ptr, ptr, ptr, ptr, ptr, ptr, ptr, [6 x ptr], ptr, ptr, ptr, ptr, [6 x ptr], ptr, ptr, ptr, ptr, ptr, ptr, ptr, ptr, ptr, ptr, ptr, ptr, ptr, ptr, [6 x ptr], ptr, ptr, ptr, ptr, ptr, double, ptr, ptr, i32, i32, i32, i32, i32, i32, i32, double, double, double, i32, double, i32, i32, i32, i32, double, double, double, double, double, double, double, double, double, double, double, double, double, double, i32, i32, i32, i32, i32, i64, double, i32, i64, i64, i64, i64, i64, i64, i64, i64, i64, i64, i64, i64, i64, i64, i64, i64, i64, i64, i64, i64, i64, i64, i64, i64, ptr, ptr, ptr, i32, i32, i32, i32, i32, i32, i32, i32, i32, i32, i32, i32, i32, ptr, ptr, ptr, ptr, ptr, ptr, i32, i32, i32, i32, i32, i32, double, double, double, ptr, i32, ptr, ptr, double, double, double, ptr, ptr, ptr, double, double, i32, i32, i64, ptr, i32, i32, ptr, i32 }

; Function Attrs: nounwind uwtable
define internal void @IDAQuadSensFreeVectors(ptr noundef %0) #0 {
  %2 = alloca ptr, align 8
  %3 = alloca i32, align 4
  %4 = alloca i32, align 4
  store ptr %0, ptr %2, align 8, !tbaa !3
  call void @llvm.lifetime.start.p0(i64 4, ptr %3) #8
  call void @llvm.lifetime.start.p0(i64 4, ptr %4) #8
  %5 = load ptr, ptr %2, align 8, !tbaa !3
  %6 = getelementptr inbounds nuw %struct.IDAMemRec, ptr %5, i32 0, i32 126
  %7 = load i32, ptr %6, align 4, !tbaa !29
  %8 = icmp sgt i32 %7, 4
  br i1 %8, label %9, label %13

9:                                                ; preds = %1
  %10 = load ptr, ptr %2, align 8, !tbaa !3
  %11 = getelementptr inbounds nuw %struct.IDAMemRec, ptr %10, i32 0, i32 126
  %12 = load i32, ptr %11, align 4, !tbaa !29
  br label %14

13:                                               ; preds = %1
  br label %14

14:                                               ; preds = %13, %9
  %15 = phi i32 [ %12, %9 ], [ 4, %13 ]
  store i32 %15, ptr %4, align 4, !tbaa !88
  %16 = load ptr, ptr %2, align 8, !tbaa !3
  %17 = getelementptr inbounds nuw %struct.IDAMemRec, ptr %16, i32 0, i32 87
  %18 = load ptr, ptr %17, align 8, !tbaa !207
  %19 = load ptr, ptr %2, align 8, !tbaa !3
  %20 = getelementptr inbounds nuw %struct.IDAMemRec, ptr %19, i32 0, i32 19
  %21 = load i32, ptr %20, align 4, !tbaa !173
  call void @N_VDestroyVectorArray(ptr noundef %18, i32 noundef %21)
  %22 = load ptr, ptr %2, align 8, !tbaa !3
  %23 = getelementptr inbounds nuw %struct.IDAMemRec, ptr %22, i32 0, i32 85
  %24 = load ptr, ptr %23, align 8, !tbaa !208
  %25 = load ptr, ptr %2, align 8, !tbaa !3
  %26 = getelementptr inbounds nuw %struct.IDAMemRec, ptr %25, i32 0, i32 19
  %27 = load i32, ptr %26, align 4, !tbaa !173
  call void @N_VDestroyVectorArray(ptr noundef %24, i32 noundef %27)
  %28 = load ptr, ptr %2, align 8, !tbaa !3
  %29 = getelementptr inbounds nuw %struct.IDAMemRec, ptr %28, i32 0, i32 86
  %30 = load ptr, ptr %29, align 8, !tbaa !210
  %31 = load ptr, ptr %2, align 8, !tbaa !3
  %32 = getelementptr inbounds nuw %struct.IDAMemRec, ptr %31, i32 0, i32 19
  %33 = load i32, ptr %32, align 4, !tbaa !173
  call void @N_VDestroyVectorArray(ptr noundef %30, i32 noundef %33)
  %34 = load ptr, ptr %2, align 8, !tbaa !3
  %35 = getelementptr inbounds nuw %struct.IDAMemRec, ptr %34, i32 0, i32 88
  %36 = load ptr, ptr %35, align 8, !tbaa !209
  %37 = load ptr, ptr %2, align 8, !tbaa !3
  %38 = getelementptr inbounds nuw %struct.IDAMemRec, ptr %37, i32 0, i32 19
  %39 = load i32, ptr %38, align 4, !tbaa !173
  call void @N_VDestroyVectorArray(ptr noundef %36, i32 noundef %39)
  %40 = load ptr, ptr %2, align 8, !tbaa !3
  %41 = getelementptr inbounds nuw %struct.IDAMemRec, ptr %40, i32 0, i32 89
  %42 = load ptr, ptr %41, align 8, !tbaa !211
  call void @N_VDestroy(ptr noundef %42)
  store i32 0, ptr %3, align 4, !tbaa !88
  br label %43

43:                                               ; preds = %57, %14
  %44 = load i32, ptr %3, align 4, !tbaa !88
  %45 = load i32, ptr %4, align 4, !tbaa !88
  %46 = icmp sle i32 %44, %45
  br i1 %46, label %47, label %60

47:                                               ; preds = %43
  %48 = load ptr, ptr %2, align 8, !tbaa !3
  %49 = getelementptr inbounds nuw %struct.IDAMemRec, ptr %48, i32 0, i32 84
  %50 = load i32, ptr %3, align 4, !tbaa !88
  %51 = sext i32 %50 to i64
  %52 = getelementptr inbounds [6 x ptr], ptr %49, i64 0, i64 %51
  %53 = load ptr, ptr %52, align 8, !tbaa !94
  %54 = load ptr, ptr %2, align 8, !tbaa !3
  %55 = getelementptr inbounds nuw %struct.IDAMemRec, ptr %54, i32 0, i32 19
  %56 = load i32, ptr %55, align 4, !tbaa !173
  call void @N_VDestroyVectorArray(ptr noundef %53, i32 noundef %56)
  br label %57

57:                                               ; preds = %47
  %58 = load i32, ptr %3, align 4, !tbaa !88
  %59 = add nsw i32 %58, 1
  store i32 %59, ptr %3, align 4, !tbaa !88
  br label %43, !llvm.loop !283

60:                                               ; preds = %43
  %61 = load i32, ptr %4, align 4, !tbaa !88
  %62 = add nsw i32 %61, 5
  %63 = load ptr, ptr %2, align 8, !tbaa !3
  %64 = getelementptr inbounds nuw %struct.IDAMemRec, ptr %63, i32 0, i32 19
  %65 = load i32, ptr %64, align 4, !tbaa !173
  %66 = mul nsw i32 %62, %65
  %67 = sext i32 %66 to i64
  %68 = load ptr, ptr %2, align 8, !tbaa !3
  %69 = getelementptr inbounds nuw %struct.IDAMemRec, ptr %68, i32 0, i32 151
  %70 = load i64, ptr %69, align 8, !tbaa !158
  %71 = mul nsw i64 %67, %70
  %72 = load ptr, ptr %2, align 8, !tbaa !3
  %73 = getelementptr inbounds nuw %struct.IDAMemRec, ptr %72, i32 0, i32 153
  %74 = load i64, ptr %73, align 8, !tbaa !73
  %75 = sub nsw i64 %74, %71
  store i64 %75, ptr %73, align 8, !tbaa !73
  %76 = load i32, ptr %4, align 4, !tbaa !88
  %77 = add nsw i32 %76, 5
  %78 = load ptr, ptr %2, align 8, !tbaa !3
  %79 = getelementptr inbounds nuw %struct.IDAMemRec, ptr %78, i32 0, i32 19
  %80 = load i32, ptr %79, align 4, !tbaa !173
  %81 = mul nsw i32 %77, %80
  %82 = sext i32 %81 to i64
  %83 = load ptr, ptr %2, align 8, !tbaa !3
  %84 = getelementptr inbounds nuw %struct.IDAMemRec, ptr %83, i32 0, i32 152
  %85 = load i64, ptr %84, align 8, !tbaa !159
  %86 = mul nsw i64 %82, %85
  %87 = load ptr, ptr %2, align 8, !tbaa !3
  %88 = getelementptr inbounds nuw %struct.IDAMemRec, ptr %87, i32 0, i32 154
  %89 = load i64, ptr %88, align 8, !tbaa !74
  %90 = sub nsw i64 %89, %86
  store i64 %90, ptr %88, align 8, !tbaa !74
  %91 = load ptr, ptr %2, align 8, !tbaa !3
  %92 = getelementptr inbounds nuw %struct.IDAMemRec, ptr %91, i32 0, i32 168
  %93 = load i32, ptr %92, align 8, !tbaa !84
  %94 = icmp ne i32 %93, 0
  br i1 %94, label %95, label %126

95:                                               ; preds = %60
  %96 = load ptr, ptr %2, align 8, !tbaa !3
  %97 = getelementptr inbounds nuw %struct.IDAMemRec, ptr %96, i32 0, i32 42
  %98 = load ptr, ptr %97, align 8, !tbaa !220
  %99 = load ptr, ptr %2, align 8, !tbaa !3
  %100 = getelementptr inbounds nuw %struct.IDAMemRec, ptr %99, i32 0, i32 19
  %101 = load i32, ptr %100, align 4, !tbaa !173
  call void @N_VDestroyVectorArray(ptr noundef %98, i32 noundef %101)
  %102 = load ptr, ptr %2, align 8, !tbaa !3
  %103 = getelementptr inbounds nuw %struct.IDAMemRec, ptr %102, i32 0, i32 19
  %104 = load i32, ptr %103, align 4, !tbaa !173
  %105 = sext i32 %104 to i64
  %106 = load ptr, ptr %2, align 8, !tbaa !3
  %107 = getelementptr inbounds nuw %struct.IDAMemRec, ptr %106, i32 0, i32 151
  %108 = load i64, ptr %107, align 8, !tbaa !158
  %109 = mul nsw i64 %105, %108
  %110 = load ptr, ptr %2, align 8, !tbaa !3
  %111 = getelementptr inbounds nuw %struct.IDAMemRec, ptr %110, i32 0, i32 153
  %112 = load i64, ptr %111, align 8, !tbaa !73
  %113 = sub nsw i64 %112, %109
  store i64 %113, ptr %111, align 8, !tbaa !73
  %114 = load ptr, ptr %2, align 8, !tbaa !3
  %115 = getelementptr inbounds nuw %struct.IDAMemRec, ptr %114, i32 0, i32 19
  %116 = load i32, ptr %115, align 4, !tbaa !173
  %117 = sext i32 %116 to i64
  %118 = load ptr, ptr %2, align 8, !tbaa !3
  %119 = getelementptr inbounds nuw %struct.IDAMemRec, ptr %118, i32 0, i32 152
  %120 = load i64, ptr %119, align 8, !tbaa !159
  %121 = mul nsw i64 %117, %120
  %122 = load ptr, ptr %2, align 8, !tbaa !3
  %123 = getelementptr inbounds nuw %struct.IDAMemRec, ptr %122, i32 0, i32 154
  %124 = load i64, ptr %123, align 8, !tbaa !74
  %125 = sub nsw i64 %124, %121
  store i64 %125, ptr %123, align 8, !tbaa !74
  br label %126

126:                                              ; preds = %95, %60
  %127 = load ptr, ptr %2, align 8, !tbaa !3
  %128 = getelementptr inbounds nuw %struct.IDAMemRec, ptr %127, i32 0, i32 169
  %129 = load i32, ptr %128, align 4, !tbaa !85
  %130 = icmp ne i32 %129, 0
  br i1 %130, label %131, label %145

131:                                              ; preds = %126
  %132 = load ptr, ptr %2, align 8, !tbaa !3
  %133 = getelementptr inbounds nuw %struct.IDAMemRec, ptr %132, i32 0, i32 41
  %134 = load ptr, ptr %133, align 8, !tbaa !217
  call void @free(ptr noundef %134) #8
  %135 = load ptr, ptr %2, align 8, !tbaa !3
  %136 = getelementptr inbounds nuw %struct.IDAMemRec, ptr %135, i32 0, i32 41
  store ptr null, ptr %136, align 8, !tbaa !217
  %137 = load ptr, ptr %2, align 8, !tbaa !3
  %138 = getelementptr inbounds nuw %struct.IDAMemRec, ptr %137, i32 0, i32 19
  %139 = load i32, ptr %138, align 4, !tbaa !173
  %140 = sext i32 %139 to i64
  %141 = load ptr, ptr %2, align 8, !tbaa !3
  %142 = getelementptr inbounds nuw %struct.IDAMemRec, ptr %141, i32 0, i32 153
  %143 = load i64, ptr %142, align 8, !tbaa !73
  %144 = sub nsw i64 %143, %140
  store i64 %144, ptr %142, align 8, !tbaa !73
  br label %145

145:                                              ; preds = %131, %126
  %146 = load ptr, ptr %2, align 8, !tbaa !3
  %147 = getelementptr inbounds nuw %struct.IDAMemRec, ptr %146, i32 0, i32 168
  store i32 0, ptr %147, align 8, !tbaa !84
  %148 = load ptr, ptr %2, align 8, !tbaa !3
  %149 = getelementptr inbounds nuw %struct.IDAMemRec, ptr %148, i32 0, i32 169
  store i32 0, ptr %149, align 4, !tbaa !85
  call void @llvm.lifetime.end.p0(i64 4, ptr %4) #8
  call void @llvm.lifetime.end.p0(i64 4, ptr %3) #8
  ret void
}

; Function Attrs: nounwind uwtable
define void @IDAQuadSensFree(ptr noundef %0) #0 {
  %2 = alloca ptr, align 8
  %3 = alloca ptr, align 8
  %4 = alloca i32, align 4
  store ptr %0, ptr %2, align 8, !tbaa !91
  call void @llvm.lifetime.start.p0(i64 8, ptr %3) #8
  %5 = load ptr, ptr %2, align 8, !tbaa !91
  %6 = icmp eq ptr %5, null
  br i1 %6, label %7, label %8

7:                                                ; preds = %1
  store i32 1, ptr %4, align 4
  br label %21

8:                                                ; preds = %1
  %9 = load ptr, ptr %2, align 8, !tbaa !91
  store ptr %9, ptr %3, align 8, !tbaa !3
  %10 = load ptr, ptr %3, align 8, !tbaa !3
  %11 = getelementptr inbounds nuw %struct.IDAMemRec, ptr %10, i32 0, i32 170
  %12 = load i32, ptr %11, align 8, !tbaa !86
  %13 = icmp ne i32 %12, 0
  br i1 %13, label %14, label %20

14:                                               ; preds = %8
  %15 = load ptr, ptr %3, align 8, !tbaa !3
  call void @IDAQuadSensFreeVectors(ptr noundef %15)
  %16 = load ptr, ptr %3, align 8, !tbaa !3
  %17 = getelementptr inbounds nuw %struct.IDAMemRec, ptr %16, i32 0, i32 170
  store i32 0, ptr %17, align 8, !tbaa !86
  %18 = load ptr, ptr %3, align 8, !tbaa !3
  %19 = getelementptr inbounds nuw %struct.IDAMemRec, ptr %18, i32 0, i32 34
  store i32 0, ptr %19, align 8, !tbaa !65
  br label %20

20:                                               ; preds = %14, %8
  store i32 0, ptr %4, align 4
  br label %21

21:                                               ; preds = %20, %7
  call void @llvm.lifetime.end.p0(i64 8, ptr %3) #8
  %22 = load i32, ptr %4, align 4
  switch i32 %22, label %24 [
    i32 0, label %23
    i32 1, label %23
  ]

23:                                               ; preds = %21, %21
  ret void

24:                                               ; preds = %21
  unreachable
}