; Function Attrs: nounwind uwtable
define void @IDAQuadSensFree(ptr noundef captures(address_is_null) %0) local_unnamed_addr #0 {
  %2 = icmp eq ptr %0, null
  br i1 %2, label %73, label %3

3:                                                ; preds = %1
  %4 = getelementptr inbounds nuw i8, ptr %0, i64 1584
  %5 = load i32, ptr %4, align 8, !tbaa !181
  %.not = icmp eq i32 %5, 0
  br i1 %.not, label %73, label %6

6:                                                ; preds = %3
  %7 = getelementptr inbounds nuw i8, ptr %0, i64 1284
  %8 = load i32, ptr %7, align 4, !tbaa !21
  %spec.select.i = tail call i32 @llvm.smax.i32(i32 %8, i32 4)
  %9 = getelementptr inbounds nuw i8, ptr %0, i64 1024
  %10 = load ptr, ptr %9, align 8, !tbaa !171
  %11 = getelementptr inbounds nuw i8, ptr %0, i64 140
  %12 = load i32, ptr %11, align 4, !tbaa !139
  tail call void @N_VDestroyVectorArray(ptr noundef %10, i32 noundef %12) #13
  %13 = getelementptr inbounds nuw i8, ptr %0, i64 1008
  %14 = load ptr, ptr %13, align 8, !tbaa !172
  %15 = load i32, ptr %11, align 4, !tbaa !139
  tail call void @N_VDestroyVectorArray(ptr noundef %14, i32 noundef %15) #13
  %16 = getelementptr inbounds nuw i8, ptr %0, i64 1016
  %17 = load ptr, ptr %16, align 8, !tbaa !174
  %18 = load i32, ptr %11, align 4, !tbaa !139
  tail call void @N_VDestroyVectorArray(ptr noundef %17, i32 noundef %18) #13
  %19 = getelementptr inbounds nuw i8, ptr %0, i64 1032
  %20 = load ptr, ptr %19, align 8, !tbaa !173
  %21 = load i32, ptr %11, align 4, !tbaa !139
  tail call void @N_VDestroyVectorArray(ptr noundef %20, i32 noundef %21) #13
  %22 = getelementptr inbounds nuw i8, ptr %0, i64 1040
  %23 = load ptr, ptr %22, align 8, !tbaa !175
  tail call void @N_VDestroy(ptr noundef %23) #13
  %24 = getelementptr inbounds nuw i8, ptr %0, i64 960
  %25 = add nuw i32 %spec.select.i, 1
  %wide.trip.count.i = zext i32 %25 to i64
  br label %26

26:                                               ; preds = %26, %6
  %indvars.iv.i = phi i64 [ 0, %6 ], [ %indvars.iv.next.i, %26 ]
  %27 = getelementptr inbounds nuw [6 x ptr], ptr %24, i64 0, i64 %indvars.iv.i
  %28 = load ptr, ptr %27, align 8, !tbaa !150
  %29 = load i32, ptr %11, align 4, !tbaa !139
  tail call void @N_VDestroyVectorArray(ptr noundef %28, i32 noundef %29) #13
  %indvars.iv.next.i = add nuw nsw i64 %indvars.iv.i, 1
  %exitcond.not.i = icmp eq i64 %indvars.iv.next.i, %wide.trip.count.i
  br i1 %exitcond.not.i, label %30, label %26, !llvm.loop !332

30:                                               ; preds = %26
  %31 = add nuw nsw i32 %spec.select.i, 5
  %32 = load i32, ptr %11, align 4, !tbaa !139
  %33 = mul nsw i32 %32, %31
  %34 = sext i32 %33 to i64
  %35 = getelementptr inbounds nuw i8, ptr %0, i64 1480
  %36 = load i64, ptr %35, align 8, !tbaa !122
  %37 = mul nsw i64 %36, %34
  %38 = getelementptr inbounds nuw i8, ptr %0, i64 1496
  %39 = load i64, ptr %38, align 8, !tbaa !54
  %40 = sub nsw i64 %39, %37
  store i64 %40, ptr %38, align 8, !tbaa !54
  %41 = getelementptr inbounds nuw i8, ptr %0, i64 1488
  %42 = load i64, ptr %41, align 8, !tbaa !123
  %43 = mul nsw i64 %42, %34
  %44 = getelementptr inbounds nuw i8, ptr %0, i64 1504
  %45 = load i64, ptr %44, align 8, !tbaa !55
  %46 = sub nsw i64 %45, %43
  store i64 %46, ptr %44, align 8, !tbaa !55
  %47 = getelementptr inbounds nuw i8, ptr %0, i64 1576
  %48 = load i32, ptr %47, align 8, !tbaa !189
  %.not42.i = icmp eq i32 %48, 0
  br i1 %.not42.i, label %62, label %49

49:                                               ; preds = %30
  %50 = getelementptr inbounds nuw i8, ptr %0, i64 304
  %51 = load ptr, ptr %50, align 8, !tbaa !190
  tail call void @N_VDestroyVectorArray(ptr noundef %51, i32 noundef %32) #13
  %52 = load i32, ptr %11, align 4, !tbaa !139
  %53 = sext i32 %52 to i64
  %54 = load i64, ptr %35, align 8, !tbaa !122
  %55 = mul nsw i64 %54, %53
  %56 = load i64, ptr %38, align 8, !tbaa !54
  %57 = sub nsw i64 %56, %55
  store i64 %57, ptr %38, align 8, !tbaa !54
  %58 = load i64, ptr %41, align 8, !tbaa !123
  %59 = mul nsw i64 %58, %53
  %60 = load i64, ptr %44, align 8, !tbaa !55
  %61 = sub nsw i64 %60, %59
  store i64 %61, ptr %44, align 8, !tbaa !55
  br label %62

62:                                               ; preds = %49, %30
  %63 = getelementptr inbounds nuw i8, ptr %0, i64 1580
  %64 = load i32, ptr %63, align 4, !tbaa !185
  %.not43.i = icmp eq i32 %64, 0
  br i1 %.not43.i, label %IDAQuadSensFreeVectors.exit, label %65

65:                                               ; preds = %62
  %66 = getelementptr inbounds nuw i8, ptr %0, i64 296
  %67 = load ptr, ptr %66, align 8, !tbaa !186
  tail call void @free(ptr noundef %67) #13
  store ptr null, ptr %66, align 8, !tbaa !186
  %68 = load i32, ptr %11, align 4, !tbaa !139
  %69 = sext i32 %68 to i64
  %70 = load i64, ptr %38, align 8, !tbaa !54
  %71 = sub nsw i64 %70, %69
  store i64 %71, ptr %38, align 8, !tbaa !54
  br label %IDAQuadSensFreeVectors.exit

IDAQuadSensFreeVectors.exit:                      ; preds = %62, %65
  store i32 0, ptr %47, align 8, !tbaa !189
  store i32 0, ptr %63, align 4, !tbaa !185
  store i32 0, ptr %4, align 8, !tbaa !181
  %72 = getelementptr inbounds nuw i8, ptr %0, i64 248
  store i32 0, ptr %72, align 8, !tbaa !46
  br label %73

73:                                               ; preds = %3, %IDAQuadSensFreeVectors.exit, %1
  ret void
}